target datalayout = "e-m:e-p270:32:32-p271:32:32-p272:64:64-i64:64-i128:128-f80:128-n8:16:32:64-S128"
target triple = "x86_64-pc-linux-gnu"

; Function Attrs: nounwind uwtable
define dso_local ptr @create_scrolled_window() #0 {
  %1 = alloca ptr, align 8
  %2 = alloca ptr, align 8
  call void @llvm.lifetime.start.p0(i64 8, ptr %1) #11
  store ptr null, ptr %1, align 8
  call void @llvm.lifetime.start.p0(i64 8, ptr %2) #11
  store ptr null, ptr %2, align 8
  %3 = call ptr @gtk_table_new(i32 noundef 1, i32 noundef 1, i32 noundef 0)
  store ptr %3, ptr %2, align 8
  %4 = load ptr, ptr %2, align 8
  %5 = call i64 @gtk_container_get_type() #12
  %6 = call ptr @g_type_check_instance_cast(ptr noundef %4, i64 noundef %5)
  call void @gtk_container_set_border_width(ptr noundef %6, i32 noundef 10)
  %7 = call ptr @gtk_scrolled_window_new(ptr noundef null, ptr noundef null)
  %8 = call i64 @gtk_scrolled_window_get_type() #12
  %9 = call ptr @g_type_check_instance_cast(ptr noundef %7, i64 noundef %8)
  store ptr %9, ptr %1, align 8
  %10 = load ptr, ptr %1, align 8
  %11 = call i64 @gtk_container_get_type() #12
  %12 = call ptr @g_type_check_instance_cast(ptr noundef %10, i64 noundef %11)
  call void @gtk_container_set_border_width(ptr noundef %12, i32 noundef 10)
  %13 = load ptr, ptr %1, align 8
  call void @gtk_scrolled_window_set_policy(ptr noundef %13, i32 noundef 1, i32 noundef 1)
  %14 = load ptr, ptr %1, align 8
  %15 = load ptr, ptr %2, align 8
  call void @gtk_scrolled_window_add_with_viewport(ptr noundef %14, ptr noundef %15)
  %16 = load ptr, ptr %1, align 8
  call void @llvm.lifetime.end.p0(i64 8, ptr %2) #11
  call void @llvm.lifetime.end.p0(i64 8, ptr %1) #11
  ret ptr %16
}