; Function Attrs: nounwind uwtable
define dso_local noundef ptr @create_scrolled_window() local_unnamed_addr #2 {
  %1 = tail call ptr @gtk_table_new(i32 noundef 1, i32 noundef 1, i32 noundef 0) #16
  %2 = tail call i64 @gtk_container_get_type() #17
  %3 = tail call ptr @g_type_check_instance_cast(ptr noundef %1, i64 noundef %2) #16
  tail call void @gtk_container_set_border_width(ptr noundef %3, i32 noundef 10) #16
  %4 = tail call ptr @gtk_scrolled_window_new(ptr noundef null, ptr noundef null) #16
  %5 = tail call i64 @gtk_scrolled_window_get_type() #17
  %6 = tail call ptr @g_type_check_instance_cast(ptr noundef %4, i64 noundef %5) #16
  %7 = tail call ptr @g_type_check_instance_cast(ptr noundef %6, i64 noundef %2) #16
  tail call void @gtk_container_set_border_width(ptr noundef %7, i32 noundef 10) #16
  tail call void @gtk_scrolled_window_set_policy(ptr noundef %6, i32 noundef 1, i32 noundef 1) #16
  tail call void @gtk_scrolled_window_add_with_viewport(ptr noundef %6, ptr noundef %1) #16
  ret ptr %6
}